; Function Attrs: mustprogress uwtable
define void @_ZN7rocksdb25TruncatedRangeDelIterator11SeekToFirstEv(ptr noundef nonnull readonly align 8 captures(none) dereferenceable(72) %0) local_unnamed_addr #4 align 2 {
  %2 = getelementptr inbounds nuw i8, ptr %0, i64 16
  %3 = load ptr, ptr %2, align 8, !tbaa !50
  %.not = icmp eq ptr %3, null
  %4 = load ptr, ptr %0, align 8, !tbaa !18
  br i1 %.not, label %9, label %5

5:                                                ; preds = %1
  %6 = load ptr, ptr %4, align 8, !tbaa !55
  %7 = getelementptr inbounds nuw i8, ptr %6, i64 48
  %8 = load ptr, ptr %7, align 8
  tail call void %8(ptr noundef nonnull align 8 dereferenceable(200) %4, ptr noundef nonnull align 8 dereferenceable(16) %3)
  br label %10

9:                                                ; preds = %1
  tail call void @_ZN7rocksdb32FragmentedRangeTombstoneIterator14SeekToTopFirstEv(ptr noundef nonnull align 8 dereferenceable(200) %4)
  br label %10

10:                                               ; preds = %9, %5
  ret void
}